; Function Attrs: mustprogress uwtable
define noundef i32 @_ZNK4base19PersistentSampleMap10TotalCountEv(ptr noundef nonnull align 8 dereferenceable(104) %0) unnamed_addr #0 align 2 {
  %2 = tail call noundef ptr @_ZN4base19PersistentSampleMap13ImportSamplesEib(ptr noundef nonnull align 8 dereferenceable(104) %0, i32 noundef -1, i1 noundef zeroext true)
  %3 = getelementptr inbounds nuw i8, ptr %0, i64 64
  %4 = load ptr, ptr %3, align 8, !tbaa !15
  %5 = getelementptr inbounds nuw i8, ptr %0, i64 48
  %.not8 = icmp eq ptr %4, %5
  br i1 %.not8, label %._crit_edge, label %.lr.ph

._crit_edge:                                      ; preds = %.lr.ph, %1
  %.0.lcssa = phi i32 [ 0, %1 ], [ %9, %.lr.ph ]
  ret i32 %.0.lcssa

.lr.ph:                                           ; preds = %1, %.lr.ph
  %.010 = phi i32 [ %9, %.lr.ph ], [ 0, %1 ]
  %.sroa.05.09 = phi ptr [ %10, %.lr.ph ], [ %4, %1 ]
  %6 = getelementptr inbounds nuw i8, ptr %.sroa.05.09, i64 40
  %7 = load ptr, ptr %6, align 8, !tbaa !36
  %8 = load i32, ptr %7, align 4, !tbaa !32
  %9 = add nsw i32 %8, %.010
  %10 = tail call noundef ptr @_ZSt18_Rb_tree_incrementPKSt18_Rb_tree_node_base(ptr noundef %.sroa.05.09) #16
  %.not = icmp eq ptr %10, %5
  br i1 %.not, label %._crit_edge, label %.lr.ph
}